target datalayout = "e-m:e-p270:32:32-p271:32:32-p272:64:64-i64:64-i128:128-f80:128-n8:16:32:64-S128"
target triple = "x86_64-pc-linux-gnu"

%struct.KDF_SSKDF = type { ptr, ptr, %struct.PROV_DIGEST, ptr, i64, ptr, i64, ptr, i64, i64, i32 }
%struct.PROV_DIGEST = type { ptr, ptr, ptr }

@.str = private unnamed_addr constant [50 x i8] c"../openssl/providers/implementations/kdfs/sskdf.c\00", align 1

; Function Attrs: nounwind uwtable
define internal void @sskdf_reset(ptr noundef %0) #0 {
  %2 = alloca ptr, align 8
  %3 = alloca ptr, align 8
  %4 = alloca ptr, align 8
  store ptr %0, ptr %2, align 8, !tbaa !3
  call void @llvm.lifetime.start.p0(i64 8, ptr %3) #6
  %5 = load ptr, ptr %2, align 8, !tbaa !3
  store ptr %5, ptr %3, align 8, !tbaa !3
  call void @llvm.lifetime.start.p0(i64 8, ptr %4) #6
  %6 = load ptr, ptr %3, align 8, !tbaa !3
  %7 = getelementptr inbounds nuw %struct.KDF_SSKDF, ptr %6, i32 0, i32 0
  %8 = load ptr, ptr %7, align 8, !tbaa !7
  store ptr %8, ptr %4, align 8, !tbaa !3
  %9 = load ptr, ptr %3, align 8, !tbaa !3
  %10 = getelementptr inbounds nuw %struct.KDF_SSKDF, ptr %9, i32 0, i32 1
  %11 = load ptr, ptr %10, align 8, !tbaa !16
  call void @EVP_MAC_CTX_free(ptr noundef %11)
  %12 = load ptr, ptr %3, align 8, !tbaa !3
  %13 = getelementptr inbounds nuw %struct.KDF_SSKDF, ptr %12, i32 0, i32 2
  call void @ossl_prov_digest_reset(ptr noundef %13)
  %14 = load ptr, ptr %3, align 8, !tbaa !3
  %15 = getelementptr inbounds nuw %struct.KDF_SSKDF, ptr %14, i32 0, i32 3
  %16 = load ptr, ptr %15, align 8, !tbaa !21
  %17 = load ptr, ptr %3, align 8, !tbaa !3
  %18 = getelementptr inbounds nuw %struct.KDF_SSKDF, ptr %17, i32 0, i32 4
  %19 = load i64, ptr %18, align 8, !tbaa !22
  call void @CRYPTO_clear_free(ptr noundef %16, i64 noundef %19, ptr noundef @.str, i32 noundef 330)
  %20 = load ptr, ptr %3, align 8, !tbaa !3
  %21 = getelementptr inbounds nuw %struct.KDF_SSKDF, ptr %20, i32 0, i32 5
  %22 = load ptr, ptr %21, align 8, !tbaa !17
  %23 = load ptr, ptr %3, align 8, !tbaa !3
  %24 = getelementptr inbounds nuw %struct.KDF_SSKDF, ptr %23, i32 0, i32 6
  %25 = load i64, ptr %24, align 8, !tbaa !18
  call void @CRYPTO_clear_free(ptr noundef %22, i64 noundef %25, ptr noundef @.str, i32 noundef 331)
  %26 = load ptr, ptr %3, align 8, !tbaa !3
  %27 = getelementptr inbounds nuw %struct.KDF_SSKDF, ptr %26, i32 0, i32 7
  %28 = load ptr, ptr %27, align 8, !tbaa !19
  %29 = load ptr, ptr %3, align 8, !tbaa !3
  %30 = getelementptr inbounds nuw %struct.KDF_SSKDF, ptr %29, i32 0, i32 8
  %31 = load i64, ptr %30, align 8, !tbaa !20
  call void @CRYPTO_clear_free(ptr noundef %28, i64 noundef %31, ptr noundef @.str, i32 noundef 332)
  %32 = load ptr, ptr %3, align 8, !tbaa !3
  call void @llvm.memset.p0.i64(ptr align 8 %32, i8 0, i64 104, i1 false)
  %33 = load ptr, ptr %4, align 8, !tbaa !3
  %34 = load ptr, ptr %3, align 8, !tbaa !3
  %35 = getelementptr inbounds nuw %struct.KDF_SSKDF, ptr %34, i32 0, i32 0
  store ptr %33, ptr %35, align 8, !tbaa !7
  call void @llvm.lifetime.end.p0(i64 8, ptr %4) #6
  call void @llvm.lifetime.end.p0(i64 8, ptr %3) #6
  ret void
}

; Function Attrs: nounwind uwtable
define internal void @sskdf_free(ptr noundef %0) #0 {
  %2 = alloca ptr, align 8
  %3 = alloca ptr, align 8
  store ptr %0, ptr %2, align 8, !tbaa !3
  call void @llvm.lifetime.start.p0(i64 8, ptr %3) #6
  %4 = load ptr, ptr %2, align 8, !tbaa !3
  store ptr %4, ptr %3, align 8, !tbaa !3
  %5 = load ptr, ptr %3, align 8, !tbaa !3
  %6 = icmp ne ptr %5, null
  br i1 %6, label %7, label %10

7:                                                ; preds = %1
  %8 = load ptr, ptr %3, align 8, !tbaa !3
  call void @sskdf_reset(ptr noundef %8)
  %9 = load ptr, ptr %3, align 8, !tbaa !3
  call void @CRYPTO_free(ptr noundef %9, ptr noundef @.str, i32 noundef 343)
  br label %10

10:                                               ; preds = %7, %1
  call void @llvm.lifetime.end.p0(i64 8, ptr %3) #6
  ret void
}