; Function Attrs: nounwind uwtable
define internal void @sskdf_free(ptr noundef %0) #0 {
  %.not = icmp eq ptr %0, null
  br i1 %.not, label %19, label %2

2:                                                ; preds = %1
  %3 = load ptr, ptr %0, align 8, !tbaa !3
  %4 = getelementptr inbounds nuw i8, ptr %0, i64 8
  %5 = load ptr, ptr %4, align 8, !tbaa !15
  tail call void @EVP_MAC_CTX_free(ptr noundef %5) #7
  %6 = getelementptr inbounds nuw i8, ptr %0, i64 16
  tail call void @ossl_prov_digest_reset(ptr noundef nonnull %6) #7
  %7 = getelementptr inbounds nuw i8, ptr %0, i64 40
  %8 = load ptr, ptr %7, align 8, !tbaa !20
  %9 = getelementptr inbounds nuw i8, ptr %0, i64 48
  %10 = load i64, ptr %9, align 8, !tbaa !21
  tail call void @CRYPTO_clear_free(ptr noundef %8, i64 noundef %10, ptr noundef nonnull @.str, i32 noundef 330) #7
  %11 = getelementptr inbounds nuw i8, ptr %0, i64 56
  %12 = load ptr, ptr %11, align 8, !tbaa !16
  %13 = getelementptr inbounds nuw i8, ptr %0, i64 64
  %14 = load i64, ptr %13, align 8, !tbaa !17
  tail call void @CRYPTO_clear_free(ptr noundef %12, i64 noundef %14, ptr noundef nonnull @.str, i32 noundef 331) #7
  %15 = getelementptr inbounds nuw i8, ptr %0, i64 72
  %16 = load ptr, ptr %15, align 8, !tbaa !18
  %17 = getelementptr inbounds nuw i8, ptr %0, i64 80
  %18 = load i64, ptr %17, align 8, !tbaa !19
  tail call void @CRYPTO_clear_free(ptr noundef %16, i64 noundef %18, ptr noundef nonnull @.str, i32 noundef 332) #7
  tail call void @llvm.memset.p0.i64(ptr noundef nonnull align 8 dereferenceable(104) %4, i8 0, i64 96, i1 false)
  store ptr %3, ptr %0, align 8, !tbaa !3
  tail call void @CRYPTO_free(ptr noundef nonnull %0, ptr noundef nonnull @.str, i32 noundef 343) #7
  br label %19

19:                                               ; preds = %2, %1
  ret void
}